target datalayout = "e-m:e-p270:32:32-p271:32:32-p272:64:64-i64:64-i128:128-f80:128-n8:16:32:64-S128"
target triple = "x86_64-unknown-linux-gnu"

%struct.ManagedDictionary = type { i32, %struct.MemoryManager, ptr }
%struct.MemoryManager = type { ptr, ptr, ptr }

; Function Attrs: nounwind uwtable
define hidden ptr @BrotliCreateManagedDictionary(ptr noundef %alloc_func, ptr noundef %free_func, ptr noundef %opaque) #0 {
entry:
  %retval = alloca ptr, align 8
  %alloc_func.addr = alloca ptr, align 8
  %free_func.addr = alloca ptr, align 8
  %opaque.addr = alloca ptr, align 8
  %result = alloca ptr, align 8
  store ptr %alloc_func, ptr %alloc_func.addr, align 8
  store ptr %free_func, ptr %free_func.addr, align 8
  store ptr %opaque, ptr %opaque.addr, align 8
  %0 = load ptr, ptr %alloc_func.addr, align 8
  %1 = load ptr, ptr %free_func.addr, align 8
  %2 = load ptr, ptr %opaque.addr, align 8
  %call = call ptr @BrotliBootstrapAlloc(i64 noundef 40, ptr noundef %0, ptr noundef %1, ptr noundef %2)
  store ptr %call, ptr %result, align 8
  %3 = load ptr, ptr %result, align 8
  %cmp = icmp eq ptr %3, null
  br i1 %cmp, label %if.then, label %if.end

if.then:                                          ; preds = %entry
  store ptr null, ptr %retval, align 8
  br label %return

if.end:                                           ; preds = %entry
  %4 = load ptr, ptr %result, align 8
  %magic = getelementptr inbounds %struct.ManagedDictionary, ptr %4, i32 0, i32 0
  store i32 -558043678, ptr %magic, align 8
  %5 = load ptr, ptr %result, align 8
  %memory_manager_ = getelementptr inbounds %struct.ManagedDictionary, ptr %5, i32 0, i32 1
  %6 = load ptr, ptr %alloc_func.addr, align 8
  %7 = load ptr, ptr %free_func.addr, align 8
  %8 = load ptr, ptr %opaque.addr, align 8
  call void @BrotliInitMemoryManager(ptr noundef %memory_manager_, ptr noundef %6, ptr noundef %7, ptr noundef %8)
  %9 = load ptr, ptr %result, align 8
  %dictionary = getelementptr inbounds %struct.ManagedDictionary, ptr %9, i32 0, i32 2
  store ptr null, ptr %dictionary, align 8
  %10 = load ptr, ptr %result, align 8
  store ptr %10, ptr %retval, align 8
  br label %return

return:                                           ; preds = %if.end, %if.then
  %11 = load ptr, ptr %retval, align 8
  ret ptr %11
}