; Function Attrs: nounwind uwtable
define hidden ptr @BrotliCreateManagedDictionary(ptr noundef %alloc_func, ptr noundef %free_func, ptr noundef %opaque) local_unnamed_addr #0 {
entry:
  %call = tail call ptr @BrotliBootstrapAlloc(i64 noundef 40, ptr noundef %alloc_func, ptr noundef %free_func, ptr noundef %opaque) #3
  %cmp = icmp eq ptr %call, null
  br i1 %cmp, label %return, label %if.end

if.end:                                           ; preds = %entry
  store i32 -558043678, ptr %call, align 8
  %memory_manager_ = getelementptr inbounds nuw i8, ptr %call, i64 8
  tail call void @BrotliInitMemoryManager(ptr noundef nonnull %memory_manager_, ptr noundef %alloc_func, ptr noundef %free_func, ptr noundef %opaque) #3
  %dictionary = getelementptr inbounds nuw i8, ptr %call, i64 32
  store ptr null, ptr %dictionary, align 8
  br label %return

return:                                           ; preds = %entry, %if.end
  ret ptr %call
}